; ModuleID = '32/1975.c'
source_filename = "32/1975.c"
target datalayout = "e-m:e-p270:32:32-p271:32:32-p272:64:64-i64:64-f80:128-n8:16:32:64-S128"
target triple = "x86_64-pc-linux-gnu"

@.str = private unnamed_addr constant [3 x i8] c"%d\00", align 1
@.str.1 = private unnamed_addr constant [3 x i8] c"%s\00", align 1
@.str.2 = private unnamed_addr constant [4 x i8] c"%s\0A\00", align 1

; Function Attrs: noinline nounwind uwtable
define dso_local void @main() #0 {
  %1 = alloca i32, align 4
  %2 = alloca i32, align 4
  %3 = alloca i32, align 4
  %4 = alloca i32, align 4
  %5 = alloca i32, align 4
  %6 = alloca i32, align 4
  %7 = alloca [1000 x [1000 x i8]], align 16
  %8 = alloca [1000 x [1000 x i8]], align 16
  %9 = call i32 (i8*, ...) @__isoc99_scanf(i8* getelementptr inbounds ([3 x i8], [3 x i8]* @.str, i64 0, i64 0), i32* %1)
  store i32 0, i32* %2, align 4
  br label %10

10:                                               ; preds = %25, %0
  %11 = load i32, i32* %2, align 4
  %12 = load i32, i32* %1, align 4
  %13 = icmp slt i32 %11, %12
  br i1 %13, label %14, label %28

14:                                               ; preds = %10
  %15 = load i32, i32* %2, align 4
  %16 = sext i32 %15 to i64
  %17 = getelementptr inbounds [1000 x [1000 x i8]], [1000 x [1000 x i8]]* %7, i64 0, i64 %16
  %18 = getelementptr inbounds [1000 x i8], [1000 x i8]* %17, i64 0, i64 0
  %19 = call i32 (i8*, ...) @__isoc99_scanf(i8* getelementptr inbounds ([3 x i8], [3 x i8]* @.str.1, i64 0, i64 0), i8* %18)
  %20 = load i32, i32* %2, align 4
  %21 = sext i32 %20 to i64
  %22 = getelementptr inbounds [1000 x [1000 x i8]], [1000 x [1000 x i8]]* %8, i64 0, i64 %21
  %23 = getelementptr inbounds [1000 x i8], [1000 x i8]* %22, i64 0, i64 0
  %24 = call i32 (i8*, ...) @__isoc99_scanf(i8* getelementptr inbounds ([3 x i8], [3 x i8]* @.str.1, i64 0, i64 0), i8* %23)
  br label %25

25:                                               ; preds = %14
  %26 = load i32, i32* %2, align 4
  %27 = add nsw i32 %26, 1
  store i32 %27, i32* %2, align 4
  br label %10

28:                                               ; preds = %10
  store i32 0, i32* %2, align 4
  br label %29

29:                                               ; preds = %212, %28
  %30 = load i32, i32* %2, align 4
  %31 = load i32, i32* %1, align 4
  %32 = icmp slt i32 %30, %31
  br i1 %32, label %33, label %215

33:                                               ; preds = %29
  %34 = load i32, i32* %2, align 4
  %35 = sext i32 %34 to i64
  %36 = getelementptr inbounds [1000 x [1000 x i8]], [1000 x [1000 x i8]]* %7, i64 0, i64 %35
  %37 = getelementptr inbounds [1000 x i8], [1000 x i8]* %36, i64 0, i64 0
  %38 = call i64 @strlen(i8* %37) #3
  %39 = trunc i64 %38 to i32
  store i32 %39, i32* %3, align 4
  %40 = load i32, i32* %2, align 4
  %41 = sext i32 %40 to i64
  %42 = getelementptr inbounds [1000 x [1000 x i8]], [1000 x [1000 x i8]]* %8, i64 0, i64 %41
  %43 = getelementptr inbounds [1000 x i8], [1000 x i8]* %42, i64 0, i64 0
  %44 = call i64 @strlen(i8* %43) #3
  %45 = trunc i64 %44 to i32
  store i32 %45, i32* %4, align 4
  %46 = load i32, i32* %3, align 4
  %47 = sub nsw i32 %46, 1
  store i32 %47, i32* %5, align 4
  br label %48

48:                                               ; preds = %203, %33
  %49 = load i32, i32* %5, align 4
  %50 = load i32, i32* %3, align 4
  %51 = load i32, i32* %4, align 4
  %52 = sub nsw i32 %50, %51
  %53 = icmp sge i32 %49, %52
  br i1 %53, label %54, label %206

54:                                               ; preds = %48
  %55 = load i32, i32* %2, align 4
  %56 = sext i32 %55 to i64
  %57 = getelementptr inbounds [1000 x [1000 x i8]], [1000 x [1000 x i8]]* %7, i64 0, i64 %56
  %58 = load i32, i32* %5, align 4
  %59 = sext i32 %58 to i64
  %60 = getelementptr inbounds [1000 x i8], [1000 x i8]* %57, i64 0, i64 %59
  %61 = load i8, i8* %60, align 1
  %62 = sext i8 %61 to i32
  %63 = load i32, i32* %2, align 4
  %64 = sext i32 %63 to i64
  %65 = getelementptr inbounds [1000 x [1000 x i8]], [1000 x [1000 x i8]]* %8, i64 0, i64 %64
  %66 = load i32, i32* %5, align 4
  %67 = load i32, i32* %4, align 4
  %68 = add nsw i32 %66, %67
  %69 = load i32, i32* %3, align 4
  %70 = sub nsw i32 %68, %69
  %71 = sext i32 %70 to i64
  %72 = getelementptr inbounds [1000 x i8], [1000 x i8]* %65, i64 0, i64 %71
  %73 = load i8, i8* %72, align 1
  %74 = sext i8 %73 to i32
  %75 = icmp sge i32 %62, %74
  br i1 %75, label %76, label %106

76:                                               ; preds = %54
  %77 = load i32, i32* %2, align 4
  %78 = sext i32 %77 to i64
  %79 = getelementptr inbounds [1000 x [1000 x i8]], [1000 x [1000 x i8]]* %7, i64 0, i64 %78
  %80 = load i32, i32* %5, align 4
  %81 = sext i32 %80 to i64
  %82 = getelementptr inbounds [1000 x i8], [1000 x i8]* %79, i64 0, i64 %81
  %83 = load i8, i8* %82, align 1
  %84 = sext i8 %83 to i32
  %85 = load i32, i32* %2, align 4
  %86 = sext i32 %85 to i64
  %87 = getelementptr inbounds [1000 x [1000 x i8]], [1000 x [1000 x i8]]* %8, i64 0, i64 %86
  %88 = load i32, i32* %5, align 4
  %89 = load i32, i32* %4, align 4
  %90 = add nsw i32 %88, %89
  %91 = load i32, i32* %3, align 4
  %92 = sub nsw i32 %90, %91
  %93 = sext i32 %92 to i64
  %94 = getelementptr inbounds [1000 x i8], [1000 x i8]* %87, i64 0, i64 %93
  %95 = load i8, i8* %94, align 1
  %96 = sext i8 %95 to i32
  %97 = sub nsw i32 %84, %96
  %98 = add nsw i32 %97, 48
  %99 = trunc i32 %98 to i8
  %100 = load i32, i32* %2, align 4
  %101 = sext i32 %100 to i64
  %102 = getelementptr inbounds [1000 x [1000 x i8]], [1000 x [1000 x i8]]* %7, i64 0, i64 %101
  %103 = load i32, i32* %5, align 4
  %104 = sext i32 %103 to i64
  %105 = getelementptr inbounds [1000 x i8], [1000 x i8]* %102, i64 0, i64 %104
  store i8 %99, i8* %105, align 1
  br label %202

106:                                              ; preds = %54
  %107 = load i32, i32* %2, align 4
  %108 = sext i32 %107 to i64
  %109 = getelementptr inbounds [1000 x [1000 x i8]], [1000 x [1000 x i8]]* %7, i64 0, i64 %108
  %110 = load i32, i32* %5, align 4
  %111 = sext i32 %110 to i64
  %112 = getelementptr inbounds [1000 x i8], [1000 x i8]* %109, i64 0, i64 %111
  %113 = load i8, i8* %112, align 1
  %114 = sext i8 %113 to i32
  %115 = load i32, i32* %2, align 4
  %116 = sext i32 %115 to i64
  %117 = getelementptr inbounds [1000 x [1000 x i8]], [1000 x [1000 x i8]]* %8, i64 0, i64 %116
  %118 = load i32, i32* %5, align 4
  %119 = load i32, i32* %4, align 4
  %120 = add nsw i32 %118, %119
  %121 = load i32, i32* %3, align 4
  %122 = sub nsw i32 %120, %121
  %123 = sext i32 %122 to i64
  %124 = getelementptr inbounds [1000 x i8], [1000 x i8]* %117, i64 0, i64 %123
  %125 = load i8, i8* %124, align 1
  %126 = sext i8 %125 to i32
  %127 = sub nsw i32 %114, %126
  %128 = add nsw i32 %127, 58
  %129 = trunc i32 %128 to i8
  %130 = load i32, i32* %2, align 4
  %131 = sext i32 %130 to i64
  %132 = getelementptr inbounds [1000 x [1000 x i8]], [1000 x [1000 x i8]]* %7, i64 0, i64 %131
  %133 = load i32, i32* %5, align 4
  %134 = sext i32 %133 to i64
  %135 = getelementptr inbounds [1000 x i8], [1000 x i8]* %132, i64 0, i64 %134
  store i8 %129, i8* %135, align 1
  %136 = load i32, i32* %2, align 4
  %137 = sext i32 %136 to i64
  %138 = getelementptr inbounds [1000 x [1000 x i8]], [1000 x [1000 x i8]]* %7, i64 0, i64 %137
  %139 = load i32, i32* %5, align 4
  %140 = sub nsw i32 %139, 1
  %141 = sext i32 %140 to i64
  %142 = getelementptr inbounds [1000 x i8], [1000 x i8]* %138, i64 0, i64 %141
  %143 = load i8, i8* %142, align 1
  %144 = sext i8 %143 to i32
  %145 = sub nsw i32 %144, 1
  %146 = trunc i32 %145 to i8
  %147 = load i32, i32* %2, align 4
  %148 = sext i32 %147 to i64
  %149 = getelementptr inbounds [1000 x [1000 x i8]], [1000 x [1000 x i8]]* %7, i64 0, i64 %148
  %150 = load i32, i32* %5, align 4
  %151 = sub nsw i32 %150, 1
  %152 = sext i32 %151 to i64
  %153 = getelementptr inbounds [1000 x i8], [1000 x i8]* %149, i64 0, i64 %152
  store i8 %146, i8* %153, align 1
  %154 = load i32, i32* %5, align 4
  %155 = sub nsw i32 %154, 1
  store i32 %155, i32* %6, align 4
  br label %156

156:                                              ; preds = %166, %106
  %157 = load i32, i32* %2, align 4
  %158 = sext i32 %157 to i64
  %159 = getelementptr inbounds [1000 x [1000 x i8]], [1000 x [1000 x i8]]* %7, i64 0, i64 %158
  %160 = load i32, i32* %6, align 4
  %161 = sext i32 %160 to i64
  %162 = getelementptr inbounds [1000 x i8], [1000 x i8]* %159, i64 0, i64 %161
  %163 = load i8, i8* %162, align 1
  %164 = sext i8 %163 to i32
  %165 = icmp slt i32 %164, 48
  br i1 %165, label %166, label %201

166:                                              ; preds = %156
  %167 = load i32, i32* %2, align 4
  %168 = sext i32 %167 to i64
  %169 = getelementptr inbounds [1000 x [1000 x i8]], [1000 x [1000 x i8]]* %7, i64 0, i64 %168
  %170 = load i32, i32* %6, align 4
  %171 = sext i32 %170 to i64
  %172 = getelementptr inbounds [1000 x i8], [1000 x i8]* %169, i64 0, i64 %171
  %173 = load i8, i8* %172, align 1
  %174 = sext i8 %173 to i32
  %175 = add nsw i32 %174, 10
  %176 = trunc i32 %175 to i8
  %177 = load i32, i32* %2, align 4
  %178 = sext i32 %177 to i64
  %179 = getelementptr inbounds [1000 x [1000 x i8]], [1000 x [1000 x i8]]* %7, i64 0, i64 %178
  %180 = load i32, i32* %6, align 4
  %181 = sext i32 %180 to i64
  %182 = getelementptr inbounds [1000 x i8], [1000 x i8]* %179, i64 0, i64 %181
  store i8 %176, i8* %182, align 1
  %183 = load i32, i32* %6, align 4
  %184 = sub nsw i32 %183, 1
  store i32 %184, i32* %6, align 4
  %185 = load i32, i32* %2, align 4
  %186 = sext i32 %185 to i64
  %187 = getelementptr inbounds [1000 x [1000 x i8]], [1000 x [1000 x i8]]* %7, i64 0, i64 %186
  %188 = load i32, i32* %6, align 4
  %189 = sext i32 %188 to i64
  %190 = getelementptr inbounds [1000 x i8], [1000 x i8]* %187, i64 0, i64 %189
  %191 = load i8, i8* %190, align 1
  %192 = sext i8 %191 to i32
  %193 = sub nsw i32 %192, 1
  %194 = trunc i32 %193 to i8
  %195 = load i32, i32* %2, align 4
  %196 = sext i32 %195 to i64
  %197 = getelementptr inbounds [1000 x [1000 x i8]], [1000 x [1000 x i8]]* %7, i64 0, i64 %196
  %198 = load i32, i32* %6, align 4
  %199 = sext i32 %198 to i64
  %200 = getelementptr inbounds [1000 x i8], [1000 x i8]* %197, i64 0, i64 %199
  store i8 %194, i8* %200, align 1
  br label %156

201:                                              ; preds = %156
  br label %202

202:                                              ; preds = %201, %76
  br label %203

203:                                              ; preds = %202
  %204 = load i32, i32* %5, align 4
  %205 = add nsw i32 %204, -1
  store i32 %205, i32* %5, align 4
  br label %48

206:                                              ; preds = %48
  %207 = load i32, i32* %2, align 4
  %208 = sext i32 %207 to i64
  %209 = getelementptr inbounds [1000 x [1000 x i8]], [1000 x [1000 x i8]]* %7, i64 0, i64 %208
  %210 = getelementptr inbounds [1000 x i8], [1000 x i8]* %209, i64 0, i64 0
  %211 = call i32 (i8*, ...) @printf(i8* getelementptr inbounds ([4 x i8], [4 x i8]* @.str.2, i64 0, i64 0), i8* %210)
  br label %212

212:                                              ; preds = %206
  %213 = load i32, i32* %2, align 4
  %214 = add nsw i32 %213, 1
  store i32 %214, i32* %2, align 4
  br label %29

215:                                              ; preds = %29
  ret void
}

declare dso_local i32 @__isoc99_scanf(i8*, ...) #1

; Function Attrs: nounwind readonly
declare dso_local i64 @strlen(i8*) #2

declare dso_local i32 @printf(i8*, ...) #1


!llvm.module.flags = !{!0}
!llvm.ident = !{!1}

!0 = !{i32 1, !"wchar_size", i32 4}
!1 = !{!"clang version 10.0.0-4ubuntu1 "}
